; ModuleID = '45/2427.c'
source_filename = "45/2427.c"
target datalayout = "e-m:e-p270:32:32-p271:32:32-p272:64:64-i64:64-f80:128-n8:16:32:64-S128"
target triple = "x86_64-pc-linux-gnu"

@.str = private unnamed_addr constant [6 x i8] c"%s %s\00", align 1
@.str.1 = private unnamed_addr constant [4 x i8] c"%d\0A\00", align 1

; Function Attrs: noinline nounwind uwtable
define dso_local void @main() #0 {
  %1 = alloca i32, align 4
  %2 = alloca i32, align 4
  %3 = alloca i32, align 4
  %4 = alloca i32, align 4
  %5 = alloca [50 x i8], align 16
  %6 = alloca [20 x i8], align 16
  store i32 0, i32* %4, align 4
  %7 = getelementptr inbounds [50 x i8], [50 x i8]* %5, i64 0, i64 0
  %8 = getelementptr inbounds [20 x i8], [20 x i8]* %6, i64 0, i64 0
  %9 = call i32 (i8*, ...) @__isoc99_scanf(i8* getelementptr inbounds ([6 x i8], [6 x i8]* @.str, i64 0, i64 0), i8* %7, i8* %8)
  %10 = getelementptr inbounds [50 x i8], [50 x i8]* %5, i64 0, i64 0
  %11 = call i64 @strlen(i8* %10) #3
  %12 = trunc i64 %11 to i32
  store i32 %12, i32* %3, align 4
  store i32 0, i32* %2, align 4
  store i32 0, i32* %1, align 4
  br label %13

13:                                               ; preds = %0, %23, %53
  %14 = load i32, i32* %1, align 4
  %15 = sext i32 %14 to i64
  %16 = getelementptr inbounds [20 x i8], [20 x i8]* %6, i64 0, i64 %15
  %17 = load i8, i8* %16, align 1
  %18 = sext i8 %17 to i32
  %19 = getelementptr inbounds [50 x i8], [50 x i8]* %5, i64 0, i64 0
  %20 = load i8, i8* %19, align 16
  %21 = sext i8 %20 to i32
  %22 = icmp ne i32 %18, %21
  br i1 %22, label %23, label %26

23:                                               ; preds = %13
  %24 = load i32, i32* %1, align 4
  %25 = add nsw i32 %24, 1
  store i32 %25, i32* %1, align 4
  br label %13

26:                                               ; preds = %13
  store i32 0, i32* %2, align 4
  br label %27

27:                                               ; preds = %47, %26
  %28 = load i32, i32* %2, align 4
  %29 = load i32, i32* %3, align 4
  %30 = icmp slt i32 %28, %29
  br i1 %30, label %31, label %50

31:                                               ; preds = %27
  %32 = load i32, i32* %1, align 4
  %33 = load i32, i32* %2, align 4
  %34 = add nsw i32 %32, %33
  %35 = sext i32 %34 to i64
  %36 = getelementptr inbounds [20 x i8], [20 x i8]* %6, i64 0, i64 %35
  %37 = load i8, i8* %36, align 1
  %38 = sext i8 %37 to i32
  %39 = load i32, i32* %2, align 4
  %40 = sext i32 %39 to i64
  %41 = getelementptr inbounds [50 x i8], [50 x i8]* %5, i64 0, i64 %40
  %42 = load i8, i8* %41, align 1
  %43 = sext i8 %42 to i32
  %44 = icmp ne i32 %38, %43
  br i1 %44, label %45, label %46

45:                                               ; preds = %31
  store i32 1, i32* %4, align 4
  br label %50

46:                                               ; preds = %31
  br label %47

47:                                               ; preds = %46
  %48 = load i32, i32* %2, align 4
  %49 = add nsw i32 %48, 1
  store i32 %49, i32* %2, align 4
  br label %27

50:                                               ; preds = %45, %27
  %51 = load i32, i32* %4, align 4
  %52 = icmp eq i32 %51, 1
  br i1 %52, label %53, label %56

53:                                               ; preds = %50
  %54 = load i32, i32* %1, align 4
  %55 = add nsw i32 %54, 1
  store i32 %55, i32* %1, align 4
  store i32 0, i32* %4, align 4
  br label %13

56:                                               ; preds = %50
  br label %57

57:                                               ; preds = %56
  %58 = load i32, i32* %1, align 4
  %59 = call i32 (i8*, ...) @printf(i8* getelementptr inbounds ([4 x i8], [4 x i8]* @.str.1, i64 0, i64 0), i32 %58)
  ret void
}

declare dso_local i32 @__isoc99_scanf(i8*, ...) #1

; Function Attrs: nounwind readonly
declare dso_local i64 @strlen(i8*) #2

declare dso_local i32 @printf(i8*, ...) #1


!llvm.module.flags = !{!0}
!llvm.ident = !{!1}

!0 = !{i32 1, !"wchar_size", i32 4}
!1 = !{!"clang version 10.0.0-4ubuntu1 "}
